CCS PCM C Compiler, Version 4.068, 61971               11-Mar-19 16:31

               Filename: C:\Users\Ali ÇAKIR\Desktop\Wordpress\Pic Programlama\LED Yakma\-Zamnlayýcýlar\Timer1\Timer1Uyg1.lst

               ROM used: 130 words (2%)
                         Largest free fragment is 2048
               RAM used: 16 (4%) at main() level
                         16 (4%) worst case
               Stack:    1 worst case (0 in main + 1 for interrupts)

*
0000:  MOVLW  00
0001:  MOVWF  0A
0002:  GOTO   048
0003:  NOP
0004:  MOVWF  7F
0005:  SWAPF  03,W
0006:  CLRF   03
0007:  MOVWF  21
0008:  MOVF   0A,W
0009:  MOVWF  20
000A:  CLRF   0A
000B:  MOVF   04,W
000C:  MOVWF  22
000D:  MOVF   77,W
000E:  MOVWF  23
000F:  MOVF   78,W
0010:  MOVWF  24
0011:  MOVF   79,W
0012:  MOVWF  25
0013:  MOVF   7A,W
0014:  MOVWF  26
0015:  MOVF   7B,W
0016:  MOVWF  27
0017:  BCF    03.7
0018:  BCF    03.5
0019:  MOVLW  8C
001A:  MOVWF  04
001B:  BTFSS  00.0
001C:  GOTO   01F
001D:  BTFSC  0C.0
001E:  GOTO   032
001F:  MOVF   22,W
0020:  MOVWF  04
0021:  MOVF   23,W
0022:  MOVWF  77
0023:  MOVF   24,W
0024:  MOVWF  78
0025:  MOVF   25,W
0026:  MOVWF  79
0027:  MOVF   26,W
0028:  MOVWF  7A
0029:  MOVF   27,W
002A:  MOVWF  7B
002B:  MOVF   20,W
002C:  MOVWF  0A
002D:  SWAPF  21,W
002E:  MOVWF  03
002F:  SWAPF  7F,F
0030:  SWAPF  7F,W
0031:  RETFIE
0032:  BCF    0A.3
0033:  BCF    0A.4
0034:  GOTO   035
.................... #include <16F877.h> 
.................... //////// Standard Header file for the PIC16F877 device //////////////// 
.................... #device PIC16F877 
.................... #list 
....................  
....................  
.................... #FUSES NOWDT              //Watch Dog Timer Kullanma 
.................... #FUSES XT                 //Kristal  Osilatör ile CLKOUT 
.................... #FUSES NOPUT              //Power Up Timer Kullanma 
.................... #FUSES NOPROTECT          //Rom'a Yazýlan Veriler Okunabilir 
.................... #FUSES NOBROWNOUT         //Brownout Reset Kullanma 
.................... #FUSES NOLVP              //Düþük Gerilimler ile Programlamayý Kapt 
.................... #FUSES NOCPD              //Data EEPROM Korumasýz 
.................... #FUSES NOWRT              //Program Belleði Yazmaya Açýk 
.................... #FUSES NODEBUG            //ICD için Hata Ayýklama Modu Kapalý 
....................  
.................... #use delay(clock=4000000) 
....................  
.................... #use fast_io(b) 
....................  
.................... int i=0; 
*
0051:  BCF    03.5
0052:  CLRF   28
....................  
.................... #int_timer1 
.................... void timer1_kesme() 
.................... { 
....................    set_timer1(63016); 
*
0035:  MOVLW  F6
0036:  MOVWF  0F
0037:  MOVLW  28
0038:  MOVWF  0E
....................    i++;    
0039:  INCF   28,F
....................       if(i==50) 
003A:  MOVF   28,W
003B:  SUBLW  32
003C:  BTFSC  03.2
....................          output_high(pin_b0); 
003D:  BSF    06.0
....................        
....................       if(i==100) 
003E:  MOVF   28,W
003F:  SUBLW  64
0040:  BTFSS  03.2
0041:  GOTO   044
....................       { 
....................          output_low(pin_b0); 
0042:  BCF    06.0
....................          i=0; 
0043:  CLRF   28
....................       } 
.................... } 
....................  
0044:  BCF    0C.0
0045:  BCF    0A.3
0046:  BCF    0A.4
0047:  GOTO   01F
.................... void main() 
.................... { 
0048:  CLRF   04
0049:  BCF    03.7
004A:  MOVLW  1F
004B:  ANDWF  03,F
004C:  BSF    03.5
004D:  BSF    1F.0
004E:  BSF    1F.1
004F:  BSF    1F.2
0050:  BCF    1F.3
....................    setup_psp(PSP_DISABLED); 
*
0055:  BSF    03.5
0056:  BCF    09.4
....................    setup_adc_ports(NO_ANALOGS); 
0057:  BSF    1F.0
0058:  BSF    1F.1
0059:  BSF    1F.2
005A:  BCF    1F.3
....................    setup_adc(ADC_OFF);  
005B:  BCF    03.5
005C:  BCF    1F.0
....................    setup_timer_2(T2_DISABLED,0,1); 
005D:  MOVLW  00
005E:  MOVWF  78
005F:  MOVWF  12
0060:  MOVLW  00
0061:  BSF    03.5
0062:  MOVWF  12
....................    setup_CCP1(CCP_OFF); 
0063:  BCF    03.5
0064:  BSF    29.2
0065:  MOVF   29,W
0066:  BSF    03.5
0067:  MOVWF  07
0068:  BCF    03.5
0069:  CLRF   17
....................    setup_CCP2(CCP_OFF);  
006A:  BSF    29.1
006B:  MOVF   29,W
006C:  BSF    03.5
006D:  MOVWF  07
006E:  BCF    03.5
006F:  CLRF   1D
....................     
....................    set_tris_b(0x00); 
0070:  MOVLW  00
0071:  BSF    03.5
0072:  MOVWF  06
....................    set_timer1(63036); 
0073:  MOVLW  F6
0074:  BCF    03.5
0075:  MOVWF  0F
0076:  MOVLW  3C
0077:  MOVWF  0E
....................    output_b(0x00); 
0078:  CLRF   06
....................     
....................    setup_timer_1(T1_INTERNAL | T1_DIV_BY_8); 
0079:  MOVLW  B5
007A:  MOVWF  10
....................     
....................     
....................    enable_interrupts (int_timer1); 
007B:  BSF    03.5
007C:  BSF    0C.0
....................    enable_interrupts (GLOBAL);  
007D:  MOVLW  C0
007E:  BCF    03.5
007F:  IORWF  0B,F
....................    while(1); 
0080:  GOTO   080
.................... } 
....................  
....................  
0081:  SLEEP

Configuration Fuses:
   Word  1: 3F39   XT NOWDT NOPUT NOPROTECT NOBROWNOUT NOLVP NOCPD NOWRT NODEBUG
