CCS PCM C Compiler, Version 4.068, 61971               09-Mar-19 13:58

               Filename: C:\Users\Ali ÇAKIR\Desktop\Wordpress\Pic Programlama\LED Yakma\-Zamnlayýcýlar\Timer0Uyg2\Timer 0 Uyg2.lst

               ROM used: 125 words (2%)
                         Largest free fragment is 2048
               RAM used: 16 (4%) at main() level
                         16 (4%) worst case
               Stack:    1 worst case (0 in main + 1 for interrupts)

*
0000:  MOVLW  00
0001:  MOVWF  0A
0002:  GOTO   040
0003:  NOP
0004:  MOVWF  7F
0005:  SWAPF  03,W
0006:  CLRF   03
0007:  MOVWF  21
0008:  MOVF   0A,W
0009:  MOVWF  20
000A:  CLRF   0A
000B:  MOVF   04,W
000C:  MOVWF  22
000D:  MOVF   77,W
000E:  MOVWF  23
000F:  MOVF   78,W
0010:  MOVWF  24
0011:  MOVF   79,W
0012:  MOVWF  25
0013:  MOVF   7A,W
0014:  MOVWF  26
0015:  MOVF   7B,W
0016:  MOVWF  27
0017:  BCF    03.7
0018:  BCF    03.5
0019:  BTFSS  0B.5
001A:  GOTO   01D
001B:  BTFSC  0B.2
001C:  GOTO   030
001D:  MOVF   22,W
001E:  MOVWF  04
001F:  MOVF   23,W
0020:  MOVWF  77
0021:  MOVF   24,W
0022:  MOVWF  78
0023:  MOVF   25,W
0024:  MOVWF  79
0025:  MOVF   26,W
0026:  MOVWF  7A
0027:  MOVF   27,W
0028:  MOVWF  7B
0029:  MOVF   20,W
002A:  MOVWF  0A
002B:  SWAPF  21,W
002C:  MOVWF  03
002D:  SWAPF  7F,F
002E:  SWAPF  7F,W
002F:  RETFIE
0030:  BCF    0A.3
0031:  BCF    0A.4
0032:  GOTO   033
.................... #include <16F877.h> 
.................... //////// Standard Header file for the PIC16F877 device //////////////// 
.................... #device PIC16F877 
.................... #list 
....................  
....................  
.................... #FUSES NOWDT              //Watch Dog Timer Kullanma 
.................... #FUSES XT                 //Kristal  Osilatör ile CLKOUT 
.................... #FUSES NOPUT              //Power Up Timer Kullanma 
.................... #FUSES NOPROTECT          //Rom'a Yazýlan Veriler Okunabilir 
.................... #FUSES NOBROWNOUT         //Brownout Reset Kullanma 
.................... #FUSES NOLVP              //Düþük Gerilimler ile Programlamayý Kapt 
.................... #FUSES NOCPD              //Data EEPROM Korumasýz 
.................... #FUSES NOWRT              //Program Belleði Yazmaya Açýk 
.................... #FUSES NODEBUG            //ICD için Hata Ayýklama Modu Kapalý 
....................  
.................... #use delay(clock=4000000) 
....................  
.................... #use fast_io(a) 
.................... #use fast_io(b) 
....................  
.................... int sayi=0; 
*
0049:  BCF    03.5
004A:  CLRF   28
....................  
.................... #int_timer0 
.................... void timer0_kesme() 
.................... { 
....................    set_timer0(254); 
*
0033:  MOVLW  FE
0034:  MOVWF  01
....................    sayi++;    
0035:  INCF   28,F
....................    output_b(sayi); 
0036:  MOVF   28,W
0037:  MOVWF  06
....................     
....................    if (sayi==15) 
0038:  MOVF   28,W
0039:  SUBLW  0F
003A:  BTFSC  03.2
....................       sayi=0; 
003B:  CLRF   28
.................... } 
....................  
003C:  BCF    0B.2
003D:  BCF    0A.3
003E:  BCF    0A.4
003F:  GOTO   01D
.................... void main() 
.................... { 
0040:  CLRF   04
0041:  BCF    03.7
0042:  MOVLW  1F
0043:  ANDWF  03,F
0044:  BSF    03.5
0045:  BSF    1F.0
0046:  BSF    1F.1
0047:  BSF    1F.2
0048:  BCF    1F.3
....................    setup_psp(PSP_DISABLED); 
*
004D:  BSF    03.5
004E:  BCF    09.4
....................    setup_adc_ports(NO_ANALOGS); 
004F:  BSF    1F.0
0050:  BSF    1F.1
0051:  BSF    1F.2
0052:  BCF    1F.3
....................    setup_adc(ADC_OFF);  
0053:  BCF    03.5
0054:  BCF    1F.0
....................    setup_timer_1(T1_DISABLED); 
0055:  CLRF   10
....................    setup_timer_2(T2_DISABLED,0,1); 
0056:  MOVLW  00
0057:  MOVWF  78
0058:  MOVWF  12
0059:  MOVLW  00
005A:  BSF    03.5
005B:  MOVWF  12
....................    setup_CCP1(CCP_OFF); 
005C:  BCF    03.5
005D:  BSF    29.2
005E:  MOVF   29,W
005F:  BSF    03.5
0060:  MOVWF  07
0061:  BCF    03.5
0062:  CLRF   17
....................    setup_CCP2(CCP_OFF);  
0063:  BSF    29.1
0064:  MOVF   29,W
0065:  BSF    03.5
0066:  MOVWF  07
0067:  BCF    03.5
0068:  CLRF   1D
....................     
....................    set_tris_a(0x10); 
0069:  MOVLW  10
006A:  BSF    03.5
006B:  MOVWF  05
....................    set_tris_b(0x00); 
006C:  MOVLW  00
006D:  MOVWF  06
....................     
....................    output_b(0x00); 
006E:  BCF    03.5
006F:  CLRF   06
....................     
....................    setup_timer_0(RTCC_ext_h_to_l | RTCC_DIV_2); 
0070:  BSF    03.5
0071:  MOVF   01,W
0072:  ANDLW  C0
0073:  IORLW  30
0074:  MOVWF  01
....................    set_timer0(254); 
0075:  MOVLW  FE
0076:  BCF    03.5
0077:  MOVWF  01
....................     
....................    enable_interrupts (INT_timer0); 
0078:  BSF    0B.5
....................    enable_interrupts (GLOBAL);  
0079:  MOVLW  C0
007A:  IORWF  0B,F
....................     
....................    while(1); 
007B:  GOTO   07B
.................... } 
....................  
....................  
007C:  SLEEP

Configuration Fuses:
   Word  1: 3F39   XT NOWDT NOPUT NOPROTECT NOBROWNOUT NOLVP NOCPD NOWRT NODEBUG
