CCS PCM C Compiler, Version 4.068, 61971               11-Mar-19 17:39

               Filename: C:\Users\Ali ÇAKIR\Desktop\Wordpress\Pic Programlama\LED Yakma\-Zamnlayýcýlar\Timer1\Uyg2\timer1Uyg2.lst

               ROM used: 114 words (1%)
                         Largest free fragment is 2048
               RAM used: 15 (4%) at main() level
                         15 (4%) worst case
               Stack:    1 worst case (0 in main + 1 for interrupts)

*
0000:  MOVLW  00
0001:  MOVWF  0A
0002:  GOTO   043
0003:  NOP
0004:  MOVWF  7F
0005:  SWAPF  03,W
0006:  CLRF   03
0007:  MOVWF  21
0008:  MOVF   0A,W
0009:  MOVWF  20
000A:  CLRF   0A
000B:  MOVF   04,W
000C:  MOVWF  22
000D:  MOVF   77,W
000E:  MOVWF  23
000F:  MOVF   78,W
0010:  MOVWF  24
0011:  MOVF   79,W
0012:  MOVWF  25
0013:  MOVF   7A,W
0014:  MOVWF  26
0015:  MOVF   7B,W
0016:  MOVWF  27
0017:  BCF    03.7
0018:  BCF    03.5
0019:  MOVLW  8C
001A:  MOVWF  04
001B:  BTFSS  00.0
001C:  GOTO   01F
001D:  BTFSC  0C.0
001E:  GOTO   032
001F:  MOVF   22,W
0020:  MOVWF  04
0021:  MOVF   23,W
0022:  MOVWF  77
0023:  MOVF   24,W
0024:  MOVWF  78
0025:  MOVF   25,W
0026:  MOVWF  79
0027:  MOVF   26,W
0028:  MOVWF  7A
0029:  MOVF   27,W
002A:  MOVWF  7B
002B:  MOVF   20,W
002C:  MOVWF  0A
002D:  SWAPF  21,W
002E:  MOVWF  03
002F:  SWAPF  7F,F
0030:  SWAPF  7F,W
0031:  RETFIE
0032:  BCF    0A.3
0033:  BCF    0A.4
0034:  GOTO   035
.................... #include <16F877.h> 
.................... //////// Standard Header file for the PIC16F877 device //////////////// 
.................... #device PIC16F877 
.................... #list 
....................  
....................  
.................... #FUSES NOWDT              //Watch Dog Timer Kullanma 
.................... #FUSES XT                 //Kristal  Osilatör ile CLKOUT 
.................... #FUSES NOPUT              //Power Up Timer Kullanma 
.................... #FUSES NOPROTECT          //Rom'a Yazýlan Veriler Okunabilir 
.................... #FUSES NOBROWNOUT         //Brownout Reset Kullanma 
.................... #FUSES NOLVP              //Düþük Gerilimler ile Programlamayý Kapt 
.................... #FUSES NOCPD              //Data EEPROM Korumasýz 
.................... #FUSES NOWRT              //Program Belleði Yazmaya Açýk 
.................... #FUSES NODEBUG            //ICD için Hata Ayýklama Modu Kapalý 
....................  
.................... #use delay(clock=4000000) 
....................  
.................... #use fast_io(b) 
.................... #use fast_io(c) 
....................  
.................... unsigned int kesme=0; 
*
004C:  BCF    03.5
004D:  CLRF   28
....................  
.................... #int_timer1 
.................... void timer1_kesme() 
.................... { 
....................    set_timer1(65533); 
*
0035:  MOVLW  FF
0036:  MOVWF  0F
0037:  MOVLW  FD
0038:  MOVWF  0E
....................    kesme++; 
0039:  INCF   28,F
....................  /* kesme output_b(kesme) þeklinde yazýlmýþ yani onluk tabanda fakar program bnarye çevirir*/ 
....................          output_b(kesme); 
003A:  MOVF   28,W
003B:  MOVWF  06
....................           
.................... /* 255 yapýlmasýnýn deðeri b portunun tüm pinleri 11111111 olunca sýfýrla yani 00000000*/ 
....................       if(kesme==255) 
003C:  INCFSZ 28,W
003D:  GOTO   03F
....................        kesme=0; 
003E:  CLRF   28
.................... } 
....................  
003F:  BCF    0C.0
0040:  BCF    0A.3
0041:  BCF    0A.4
0042:  GOTO   01F
.................... void main() 
.................... { 
0043:  CLRF   04
0044:  BCF    03.7
0045:  MOVLW  1F
0046:  ANDWF  03,F
0047:  BSF    03.5
0048:  BSF    1F.0
0049:  BSF    1F.1
004A:  BSF    1F.2
004B:  BCF    1F.3
....................    setup_psp(PSP_DISABLED); 
*
004E:  BSF    03.5
004F:  BCF    09.4
....................    setup_adc_ports(NO_ANALOGS); 
0050:  BSF    1F.0
0051:  BSF    1F.1
0052:  BSF    1F.2
0053:  BCF    1F.3
....................    setup_adc(ADC_OFF);  
0054:  BCF    03.5
0055:  BCF    1F.0
....................    setup_timer_2(T2_DISABLED,0,1); 
0056:  MOVLW  00
0057:  MOVWF  78
0058:  MOVWF  12
0059:  MOVLW  00
005A:  BSF    03.5
005B:  MOVWF  12
....................    setup_CCP1(CCP_OFF); 
005C:  BCF    03.5
005D:  CLRF   17
....................    setup_CCP2(CCP_OFF);  
005E:  CLRF   1D
....................     
....................    set_tris_b(0x00); 
005F:  BSF    03.5
0060:  MOVWF  06
....................    set_tris_c(0x01); 
0061:  MOVLW  01
0062:  MOVWF  07
....................     
....................    set_timer1(65533); 
0063:  MOVLW  FF
0064:  BCF    03.5
0065:  MOVWF  0F
0066:  MOVLW  FD
0067:  MOVWF  0E
....................    output_b(0x00); 
0068:  CLRF   06
....................     
....................     
....................    setup_timer_1(T1_EXTERNAL | T1_DIV_BY_1); 
0069:  MOVLW  87
006A:  MOVWF  10
....................     
....................     
....................    enable_interrupts (int_timer1); 
006B:  BSF    03.5
006C:  BSF    0C.0
....................    enable_interrupts (GLOBAL);  
006D:  MOVLW  C0
006E:  BCF    03.5
006F:  IORWF  0B,F
....................    while(1); 
0070:  GOTO   070
.................... } 
....................  
....................  
0071:  SLEEP

Configuration Fuses:
   Word  1: 3F39   XT NOWDT NOPUT NOPROTECT NOBROWNOUT NOLVP NOCPD NOWRT NODEBUG
